target datalayout = "e-m:e-p270:32:32-p271:32:32-p272:64:64-i64:64-i128:128-f80:128-n8:16:32:64-S128"
target triple = "x86_64-pc-linux-gnu"

%struct.CSzFile = type { ptr, ptr }
%struct.CFileInStream = type { %struct.ISeekInStream, %struct.CSzFile }
%struct.ISeekInStream = type { ptr, ptr, i64 }

; Function Attrs: nounwind uwtable
define i32 @File_Read(ptr noundef %0, ptr noundef %1, ptr noundef %2) #0 {
  %4 = alloca i32, align 4
  %5 = alloca ptr, align 8
  %6 = alloca ptr, align 8
  %7 = alloca ptr, align 8
  %8 = alloca i64, align 8
  %9 = alloca i32, align 4
  store ptr %0, ptr %5, align 8, !tbaa !3
  store ptr %1, ptr %6, align 8, !tbaa !3
  store ptr %2, ptr %7, align 8, !tbaa !15
  call void @llvm.lifetime.start.p0(i64 8, ptr %8) #6
  %10 = load ptr, ptr %7, align 8, !tbaa !15
  %11 = load i64, ptr %10, align 8, !tbaa !17
  store i64 %11, ptr %8, align 8, !tbaa !17
  %12 = load i64, ptr %8, align 8, !tbaa !17
  %13 = icmp eq i64 %12, 0
  br i1 %13, label %14, label %15

14:                                               ; preds = %3
  store i32 0, ptr %4, align 4
  store i32 1, ptr %9, align 4
  br label %33

15:                                               ; preds = %3
  %16 = load ptr, ptr %6, align 8, !tbaa !3
  %17 = load i64, ptr %8, align 8, !tbaa !17
  %18 = load ptr, ptr %5, align 8, !tbaa !3
  %19 = getelementptr inbounds nuw %struct.CSzFile, ptr %18, i32 0, i32 0
  %20 = load ptr, ptr %19, align 8, !tbaa !7
  %21 = call i64 @fread(ptr noundef %16, i64 noundef 1, i64 noundef %17, ptr noundef %20)
  %22 = load ptr, ptr %7, align 8, !tbaa !15
  store i64 %21, ptr %22, align 8, !tbaa !17
  %23 = load ptr, ptr %7, align 8, !tbaa !15
  %24 = load i64, ptr %23, align 8, !tbaa !17
  %25 = load i64, ptr %8, align 8, !tbaa !17
  %26 = icmp eq i64 %24, %25
  br i1 %26, label %27, label %28

27:                                               ; preds = %15
  store i32 0, ptr %4, align 4
  store i32 1, ptr %9, align 4
  br label %33

28:                                               ; preds = %15
  %29 = load ptr, ptr %5, align 8, !tbaa !3
  %30 = getelementptr inbounds nuw %struct.CSzFile, ptr %29, i32 0, i32 0
  %31 = load ptr, ptr %30, align 8, !tbaa !7
  %32 = call i32 @ferror(ptr noundef %31) #6
  store i32 %32, ptr %4, align 4
  store i32 1, ptr %9, align 4
  br label %33

33:                                               ; preds = %28, %27, %14
  call void @llvm.lifetime.end.p0(i64 8, ptr %8) #6
  %34 = load i32, ptr %4, align 4
  ret i32 %34
}

; Function Attrs: nounwind uwtable
define internal i32 @FileInStream_Read(ptr noundef %0, ptr noundef %1, ptr noundef %2) #0 {
  %4 = alloca ptr, align 8
  %5 = alloca ptr, align 8
  %6 = alloca ptr, align 8
  %7 = alloca ptr, align 8
  store ptr %0, ptr %4, align 8, !tbaa !3
  store ptr %1, ptr %5, align 8, !tbaa !3
  store ptr %2, ptr %6, align 8, !tbaa !15
  call void @llvm.lifetime.start.p0(i64 8, ptr %7) #6
  %8 = load ptr, ptr %4, align 8, !tbaa !3
  store ptr %8, ptr %7, align 8, !tbaa !3
  %9 = load ptr, ptr %7, align 8, !tbaa !3
  %10 = getelementptr inbounds nuw %struct.CFileInStream, ptr %9, i32 0, i32 1
  %11 = load ptr, ptr %5, align 8, !tbaa !3
  %12 = load ptr, ptr %6, align 8, !tbaa !15
  %13 = call i32 @File_Read(ptr noundef %10, ptr noundef %11, ptr noundef %12)
  %14 = icmp eq i32 %13, 0
  %15 = select i1 %14, i32 0, i32 8
  call void @llvm.lifetime.end.p0(i64 8, ptr %7) #6
  ret i32 %15
}